target datalayout = "e-m:e-p270:32:32-p271:32:32-p272:64:64-i64:64-f80:128-n8:16:32:64-S128"
target triple = "x86_64-pc-linux-gnu"

@.str = private unnamed_addr constant [3 x i8] c"%d\00", align 1
@.str.1 = private unnamed_addr constant [5 x i8] c"%s%s\00", align 1
@.str.2 = private unnamed_addr constant [2 x i8] c"\0A\00", align 1
@.str.3 = private unnamed_addr constant [4 x i8] c"%s\0A\00", align 1

; Function Attrs: noinline nounwind uwtable
define dso_local void @main() #0 {
  %1 = alloca i32, align 4
  %2 = alloca i32, align 4
  %3 = alloca i32, align 4
  %4 = alloca i32, align 4
  %5 = alloca i32, align 4
  %6 = alloca [100 x [100 x i8]], align 16
  %7 = alloca [100 x [100 x i8]], align 16
  %8 = alloca [100 x [100 x i8]], align 16
  %9 = bitcast [100 x [100 x i8]]* %8 to i8*
  call void @llvm.memset.p0i8.i64(i8* align 16 %9, i8 0, i64 10000, i1 false)
  %10 = call i32 (i8*, ...) @__isoc99_scanf(i8* getelementptr inbounds ([3 x i8], [3 x i8]* @.str, i64 0, i64 0), i32* %1)
  store i32 0, i32* %2, align 4
  br label %11

11:                                               ; preds = %26, %0
  %12 = load i32, i32* %2, align 4
  %13 = load i32, i32* %1, align 4
  %14 = icmp slt i32 %12, %13
  br i1 %14, label %15, label %29

15:                                               ; preds = %11
  %16 = load i32, i32* %2, align 4
  %17 = sext i32 %16 to i64
  %18 = getelementptr inbounds [100 x [100 x i8]], [100 x [100 x i8]]* %6, i64 0, i64 %17
  %19 = getelementptr inbounds [100 x i8], [100 x i8]* %18, i64 0, i64 0
  %20 = load i32, i32* %2, align 4
  %21 = sext i32 %20 to i64
  %22 = getelementptr inbounds [100 x [100 x i8]], [100 x [100 x i8]]* %7, i64 0, i64 %21
  %23 = getelementptr inbounds [100 x i8], [100 x i8]* %22, i64 0, i64 0
  %24 = call i32 (i8*, ...) @__isoc99_scanf(i8* getelementptr inbounds ([5 x i8], [5 x i8]* @.str.1, i64 0, i64 0), i8* %19, i8* %23)
  %25 = call i32 (i8*, ...) @printf(i8* getelementptr inbounds ([2 x i8], [2 x i8]* @.str.2, i64 0, i64 0))
  br label %26

26:                                               ; preds = %15
  %27 = load i32, i32* %2, align 4
  %28 = add nsw i32 %27, 1
  store i32 %28, i32* %2, align 4
  br label %11

29:                                               ; preds = %11
  store i32 0, i32* %2, align 4
  br label %30

30:                                               ; preds = %296, %29
  %31 = load i32, i32* %2, align 4
  %32 = load i32, i32* %1, align 4
  %33 = icmp slt i32 %31, %32
  br i1 %33, label %34, label %299

34:                                               ; preds = %30
  %35 = load i32, i32* %2, align 4
  %36 = sext i32 %35 to i64
  %37 = getelementptr inbounds [100 x [100 x i8]], [100 x [100 x i8]]* %6, i64 0, i64 %36
  %38 = getelementptr inbounds [100 x i8], [100 x i8]* %37, i64 0, i64 0
  %39 = call i64 @strlen(i8* %38) #4
  %40 = sub i64 %39, 1
  %41 = trunc i64 %40 to i32
  store i32 %41, i32* %3, align 4
  %42 = load i32, i32* %2, align 4
  %43 = sext i32 %42 to i64
  %44 = getelementptr inbounds [100 x [100 x i8]], [100 x [100 x i8]]* %7, i64 0, i64 %43
  %45 = getelementptr inbounds [100 x i8], [100 x i8]* %44, i64 0, i64 0
  %46 = call i64 @strlen(i8* %45) #4
  %47 = sub i64 %46, 1
  %48 = trunc i64 %47 to i32
  store i32 %48, i32* %4, align 4
  br label %49

49:                                               ; preds = %168, %34
  %50 = load i32, i32* %3, align 4
  %51 = sext i32 %50 to i64
  %52 = load i32, i32* %2, align 4
  %53 = sext i32 %52 to i64
  %54 = getelementptr inbounds [100 x [100 x i8]], [100 x [100 x i8]]* %6, i64 0, i64 %53
  %55 = getelementptr inbounds [100 x i8], [100 x i8]* %54, i64 0, i64 0
  %56 = call i64 @strlen(i8* %55) #4
  %57 = load i32, i32* %2, align 4
  %58 = sext i32 %57 to i64
  %59 = getelementptr inbounds [100 x [100 x i8]], [100 x [100 x i8]]* %7, i64 0, i64 %58
  %60 = getelementptr inbounds [100 x i8], [100 x i8]* %59, i64 0, i64 0
  %61 = call i64 @strlen(i8* %60) #4
  %62 = sub i64 %56, %61
  %63 = icmp uge i64 %51, %62
  br i1 %63, label %64, label %173

64:                                               ; preds = %49
  %65 = load i32, i32* %2, align 4
  %66 = sext i32 %65 to i64
  %67 = getelementptr inbounds [100 x [100 x i8]], [100 x [100 x i8]]* %6, i64 0, i64 %66
  %68 = load i32, i32* %3, align 4
  %69 = sext i32 %68 to i64
  %70 = getelementptr inbounds [100 x i8], [100 x i8]* %67, i64 0, i64 %69
  %71 = load i8, i8* %70, align 1
  %72 = sext i8 %71 to i32
  %73 = load i32, i32* %2, align 4
  %74 = sext i32 %73 to i64
  %75 = getelementptr inbounds [100 x [100 x i8]], [100 x [100 x i8]]* %7, i64 0, i64 %74
  %76 = load i32, i32* %4, align 4
  %77 = sext i32 %76 to i64
  %78 = getelementptr inbounds [100 x i8], [100 x i8]* %75, i64 0, i64 %77
  %79 = load i8, i8* %78, align 1
  %80 = sext i8 %79 to i32
  %81 = icmp sge i32 %72, %80
  br i1 %81, label %82, label %107

82:                                               ; preds = %64
  %83 = load i32, i32* %2, align 4
  %84 = sext i32 %83 to i64
  %85 = getelementptr inbounds [100 x [100 x i8]], [100 x [100 x i8]]* %6, i64 0, i64 %84
  %86 = load i32, i32* %3, align 4
  %87 = sext i32 %86 to i64
  %88 = getelementptr inbounds [100 x i8], [100 x i8]* %85, i64 0, i64 %87
  %89 = load i8, i8* %88, align 1
  %90 = sext i8 %89 to i32
  %91 = load i32, i32* %2, align 4
  %92 = sext i32 %91 to i64
  %93 = getelementptr inbounds [100 x [100 x i8]], [100 x [100 x i8]]* %7, i64 0, i64 %92
  %94 = load i32, i32* %4, align 4
  %95 = sext i32 %94 to i64
  %96 = getelementptr inbounds [100 x i8], [100 x i8]* %93, i64 0, i64 %95
  %97 = load i8, i8* %96, align 1
  %98 = sext i8 %97 to i32
  %99 = sub nsw i32 %90, %98
  %100 = trunc i32 %99 to i8
  %101 = load i32, i32* %2, align 4
  %102 = sext i32 %101 to i64
  %103 = getelementptr inbounds [100 x [100 x i8]], [100 x [100 x i8]]* %8, i64 0, i64 %102
  %104 = load i32, i32* %3, align 4
  %105 = sext i32 %104 to i64
  %106 = getelementptr inbounds [100 x i8], [100 x i8]* %103, i64 0, i64 %105
  store i8 %100, i8* %106, align 1
  br label %151

107:                                              ; preds = %64
  %108 = load i32, i32* %2, align 4
  %109 = sext i32 %108 to i64
  %110 = getelementptr inbounds [100 x [100 x i8]], [100 x [100 x i8]]* %6, i64 0, i64 %109
  %111 = load i32, i32* %3, align 4
  %112 = sub nsw i32 %111, 1
  %113 = sext i32 %112 to i64
  %114 = getelementptr inbounds [100 x i8], [100 x i8]* %110, i64 0, i64 %113
  %115 = load i8, i8* %114, align 1
  %116 = sext i8 %115 to i32
  %117 = sub nsw i32 %116, 1
  %118 = trunc i32 %117 to i8
  %119 = load i32, i32* %2, align 4
  %120 = sext i32 %119 to i64
  %121 = getelementptr inbounds [100 x [100 x i8]], [100 x [100 x i8]]* %6, i64 0, i64 %120
  %122 = load i32, i32* %3, align 4
  %123 = sub nsw i32 %122, 1
  %124 = sext i32 %123 to i64
  %125 = getelementptr inbounds [100 x i8], [100 x i8]* %121, i64 0, i64 %124
  store i8 %118, i8* %125, align 1
  %126 = load i32, i32* %2, align 4
  %127 = sext i32 %126 to i64
  %128 = getelementptr inbounds [100 x [100 x i8]], [100 x [100 x i8]]* %6, i64 0, i64 %127
  %129 = load i32, i32* %3, align 4
  %130 = sext i32 %129 to i64
  %131 = getelementptr inbounds [100 x i8], [100 x i8]* %128, i64 0, i64 %130
  %132 = load i8, i8* %131, align 1
  %133 = sext i8 %132 to i32
  %134 = add nsw i32 10, %133
  %135 = load i32, i32* %2, align 4
  %136 = sext i32 %135 to i64
  %137 = getelementptr inbounds [100 x [100 x i8]], [100 x [100 x i8]]* %7, i64 0, i64 %136
  %138 = load i32, i32* %4, align 4
  %139 = sext i32 %138 to i64
  %140 = getelementptr inbounds [100 x i8], [100 x i8]* %137, i64 0, i64 %139
  %141 = load i8, i8* %140, align 1
  %142 = sext i8 %141 to i32
  %143 = sub nsw i32 %134, %142
  %144 = trunc i32 %143 to i8
  %145 = load i32, i32* %2, align 4
  %146 = sext i32 %145 to i64
  %147 = getelementptr inbounds [100 x [100 x i8]], [100 x [100 x i8]]* %8, i64 0, i64 %146
  %148 = load i32, i32* %3, align 4
  %149 = sext i32 %148 to i64
  %150 = getelementptr inbounds [100 x i8], [100 x i8]* %147, i64 0, i64 %149
  store i8 %144, i8* %150, align 1
  br label %151

151:                                              ; preds = %107, %82
  %152 = load i32, i32* %2, align 4
  %153 = sext i32 %152 to i64
  %154 = getelementptr inbounds [100 x [100 x i8]], [100 x [100 x i8]]* %8, i64 0, i64 %153
  %155 = load i32, i32* %3, align 4
  %156 = sext i32 %155 to i64
  %157 = getelementptr inbounds [100 x i8], [100 x i8]* %154, i64 0, i64 %156
  %158 = load i8, i8* %157, align 1
  %159 = sext i8 %158 to i32
  %160 = add nsw i32 %159, 48
  %161 = trunc i32 %160 to i8
  %162 = load i32, i32* %2, align 4
  %163 = sext i32 %162 to i64
  %164 = getelementptr inbounds [100 x [100 x i8]], [100 x [100 x i8]]* %8, i64 0, i64 %163
  %165 = load i32, i32* %3, align 4
  %166 = sext i32 %165 to i64
  %167 = getelementptr inbounds [100 x i8], [100 x i8]* %164, i64 0, i64 %166
  store i8 %161, i8* %167, align 1
  br label %168

168:                                              ; preds = %151
  %169 = load i32, i32* %3, align 4
  %170 = add nsw i32 %169, -1
  store i32 %170, i32* %3, align 4
  %171 = load i32, i32* %4, align 4
  %172 = add nsw i32 %171, -1
  store i32 %172, i32* %4, align 4
  br label %49

173:                                              ; preds = %49
  %174 = load i32, i32* %2, align 4
  %175 = sext i32 %174 to i64
  %176 = getelementptr inbounds [100 x [100 x i8]], [100 x [100 x i8]]* %6, i64 0, i64 %175
  %177 = getelementptr inbounds [100 x i8], [100 x i8]* %176, i64 0, i64 0
  %178 = call i64 @strlen(i8* %177) #4
  %179 = sub i64 %178, 1
  %180 = trunc i64 %179 to i32
  store i32 %180, i32* %5, align 4
  br label %181

181:                                              ; preds = %214, %173
  %182 = load i32, i32* %5, align 4
  %183 = icmp sge i32 %182, 0
  br i1 %183, label %184, label %217

184:                                              ; preds = %181
  %185 = load i32, i32* %2, align 4
  %186 = sext i32 %185 to i64
  %187 = getelementptr inbounds [100 x [100 x i8]], [100 x [100 x i8]]* %6, i64 0, i64 %186
  %188 = load i32, i32* %5, align 4
  %189 = sext i32 %188 to i64
  %190 = getelementptr inbounds [100 x i8], [100 x i8]* %187, i64 0, i64 %189
  %191 = load i8, i8* %190, align 1
  %192 = sext i8 %191 to i32
  %193 = icmp slt i32 %192, 48
  br i1 %193, label %194, label %213

194:                                              ; preds = %184
  %195 = load i32, i32* %2, align 4
  %196 = sext i32 %195 to i64
  %197 = getelementptr inbounds [100 x [100 x i8]], [100 x [100 x i8]]* %6, i64 0, i64 %196
  %198 = load i32, i32* %5, align 4
  %199 = sub nsw i32 %198, 1
  %200 = sext i32 %199 to i64
  %201 = getelementptr inbounds [100 x i8], [100 x i8]* %197, i64 0, i64 %200
  %202 = load i8, i8* %201, align 1
  %203 = sext i8 %202 to i32
  %204 = sub nsw i32 %203, 1
  %205 = trunc i32 %204 to i8
  %206 = load i32, i32* %2, align 4
  %207 = sext i32 %206 to i64
  %208 = getelementptr inbounds [100 x [100 x i8]], [100 x [100 x i8]]* %6, i64 0, i64 %207
  %209 = load i32, i32* %5, align 4
  %210 = sub nsw i32 %209, 1
  %211 = sext i32 %210 to i64
  %212 = getelementptr inbounds [100 x i8], [100 x i8]* %208, i64 0, i64 %211
  store i8 %205, i8* %212, align 1
  br label %213

213:                                              ; preds = %194, %184
  br label %214

214:                                              ; preds = %213
  %215 = load i32, i32* %5, align 4
  %216 = add nsw i32 %215, -1
  store i32 %216, i32* %5, align 4
  br label %181

217:                                              ; preds = %181
  store i32 0, i32* %5, align 4
  br label %218

218:                                              ; preds = %245, %217
  %219 = load i32, i32* %5, align 4
  %220 = sext i32 %219 to i64
  %221 = load i32, i32* %2, align 4
  %222 = sext i32 %221 to i64
  %223 = getelementptr inbounds [100 x [100 x i8]], [100 x [100 x i8]]* %6, i64 0, i64 %222
  %224 = getelementptr inbounds [100 x i8], [100 x i8]* %223, i64 0, i64 0
  %225 = call i64 @strlen(i8* %224) #4
  %226 = icmp ult i64 %220, %225
  br i1 %226, label %227, label %248

227:                                              ; preds = %218
  %228 = load i32, i32* %2, align 4
  %229 = sext i32 %228 to i64
  %230 = getelementptr inbounds [100 x [100 x i8]], [100 x [100 x i8]]* %6, i64 0, i64 %229
  %231 = load i32, i32* %5, align 4
  %232 = sext i32 %231 to i64
  %233 = getelementptr inbounds [100 x i8], [100 x i8]* %230, i64 0, i64 %232
  %234 = load i8, i8* %233, align 1
  %235 = sext i8 %234 to i32
  %236 = icmp slt i32 %235, 48
  br i1 %236, label %237, label %244

237:                                              ; preds = %227
  %238 = load i32, i32* %2, align 4
  %239 = sext i32 %238 to i64
  %240 = getelementptr inbounds [100 x [100 x i8]], [100 x [100 x i8]]* %6, i64 0, i64 %239
  %241 = load i32, i32* %5, align 4
  %242 = sext i32 %241 to i64
  %243 = getelementptr inbounds [100 x i8], [100 x i8]* %240, i64 0, i64 %242
  store i8 57, i8* %243, align 1
  br label %244

244:                                              ; preds = %237, %227
  br label %245

245:                                              ; preds = %244
  %246 = load i32, i32* %5, align 4
  %247 = add nsw i32 %246, 1
  store i32 %247, i32* %5, align 4
  br label %218

248:                                              ; preds = %218
  store i32 0, i32* %3, align 4
  br label %249

249:                                              ; preds = %278, %248
  %250 = load i32, i32* %3, align 4
  %251 = sext i32 %250 to i64
  %252 = load i32, i32* %2, align 4
  %253 = sext i32 %252 to i64
  %254 = getelementptr inbounds [100 x [100 x i8]], [100 x [100 x i8]]* %6, i64 0, i64 %253
  %255 = getelementptr inbounds [100 x i8], [100 x i8]* %254, i64 0, i64 0
  %256 = call i64 @strlen(i8* %255) #4
  %257 = load i32, i32* %2, align 4
  %258 = sext i32 %257 to i64
  %259 = getelementptr inbounds [100 x [100 x i8]], [100 x [100 x i8]]* %7, i64 0, i64 %258
  %260 = getelementptr inbounds [100 x i8], [100 x i8]* %259, i64 0, i64 0
  %261 = call i64 @strlen(i8* %260) #4
  %262 = sub i64 %256, %261
  %263 = icmp ult i64 %251, %262
  br i1 %263, label %264, label %281

264:                                              ; preds = %249
  %265 = load i32, i32* %2, align 4
  %266 = sext i32 %265 to i64
  %267 = getelementptr inbounds [100 x [100 x i8]], [100 x [100 x i8]]* %6, i64 0, i64 %266
  %268 = load i32, i32* %3, align 4
  %269 = sext i32 %268 to i64
  %270 = getelementptr inbounds [100 x i8], [100 x i8]* %267, i64 0, i64 %269
  %271 = load i8, i8* %270, align 1
  %272 = load i32, i32* %2, align 4
  %273 = sext i32 %272 to i64
  %274 = getelementptr inbounds [100 x [100 x i8]], [100 x [100 x i8]]* %8, i64 0, i64 %273
  %275 = load i32, i32* %3, align 4
  %276 = sext i32 %275 to i64
  %277 = getelementptr inbounds [100 x i8], [100 x i8]* %274, i64 0, i64 %276
  store i8 %271, i8* %277, align 1
  br label %278

278:                                              ; preds = %264
  %279 = load i32, i32* %3, align 4
  %280 = add nsw i32 %279, 1
  store i32 %280, i32* %3, align 4
  br label %249

281:                                              ; preds = %249
  %282 = load i32, i32* %2, align 4
  %283 = sext i32 %282 to i64
  %284 = getelementptr inbounds [100 x [100 x i8]], [100 x [100 x i8]]* %8, i64 0, i64 %283
  %285 = load i32, i32* %2, align 4
  %286 = sext i32 %285 to i64
  %287 = getelementptr inbounds [100 x [100 x i8]], [100 x [100 x i8]]* %6, i64 0, i64 %286
  %288 = getelementptr inbounds [100 x i8], [100 x i8]* %287, i64 0, i64 0
  %289 = call i64 @strlen(i8* %288) #4
  %290 = getelementptr inbounds [100 x i8], [100 x i8]* %284, i64 0, i64 %289
  store i8 0, i8* %290, align 1
  %291 = load i32, i32* %2, align 4
  %292 = sext i32 %291 to i64
  %293 = getelementptr inbounds [100 x [100 x i8]], [100 x [100 x i8]]* %8, i64 0, i64 %292
  %294 = getelementptr inbounds [100 x i8], [100 x i8]* %293, i64 0, i64 0
  %295 = call i32 (i8*, ...) @printf(i8* getelementptr inbounds ([4 x i8], [4 x i8]* @.str.3, i64 0, i64 0), i8* %294)
  br label %296

296:                                              ; preds = %281
  %297 = load i32, i32* %2, align 4
  %298 = add nsw i32 %297, 1
  store i32 %298, i32* %2, align 4
  br label %30

299:                                              ; preds = %30
  ret void
}